(lp0
S'poi'
p1
aS'to_messages'
p2
aS'from_messages'
p3
aS'from_poi_proportion'
p4
aS'to_poi_proportion'
p5
aS'shared_receipt_poi_proportion'
p6
aS'salary'
p7
aS'deferral_payments'
p8
aS'total_payments'
p9
aS'loan_advances'
p10
aS'bonus'
p11
aS'restricted_stock_deferred'
p12
aS'deferred_income'
p13
aS'total_stock_value'
p14
aS'expenses'
p15
aS'exercised_stock_options'
p16
aS'other'
p17
aS'long_term_incentive'
p18
aS'restricted_stock'
p19
aS'director_fees'
p20
a.